; Function Attrs: mustprogress uwtable
define dso_local void @_Z19DrawSolidPolygonFcn11b2TransformPK6b2Vec2if10b2HexColorPv(<2 x float> %0, <2 x float> %1, ptr noundef %2, i32 noundef %3, float noundef %4, i32 noundef %5, ptr noundef readonly captures(none) %6) #5 {
  %8 = alloca %struct.b2Transform, align 8
  call void @llvm.lifetime.start.p0(i64 16, ptr nonnull %8)
  store <2 x float> %0, ptr %8, align 8
  %9 = getelementptr inbounds nuw i8, ptr %8, i64 8
  store <2 x float> %1, ptr %9, align 8
  %10 = getelementptr inbounds nuw i8, ptr %6, i64 64
  %11 = load ptr, ptr %10, align 8, !tbaa !33
  call void @_ZN15GLSolidPolygons10AddPolygonERK11b2TransformPK6b2Vec2if10b2HexColor(ptr noundef nonnull align 8 dereferenceable(48) %11, ptr noundef nonnull align 4 dereferenceable(16) %8, ptr noundef %2, i32 noundef %3, float noundef %4, i32 noundef %5)
  call void @llvm.lifetime.end.p0(i64 16, ptr nonnull %8)
  ret void
}